target datalayout = "e-m:e-p270:32:32-p271:32:32-p272:64:64-i64:64-i128:128-f80:128-n8:16:32:64-S128"
target triple = "x86_64-pc-linux-gnu"

%"class.cv::ParallelLoopBody" = type { ptr }
%"struct.cv::DISOpticalFlowImpl::Densification_ParBody" = type { %"class.cv::ParallelLoopBody", ptr, i32, i32, i32, ptr, ptr, ptr, ptr, ptr, ptr }

@_ZTVN2cv16ParallelLoopBodyE = available_externally unnamed_addr constant { [5 x ptr] } { [5 x ptr] [ptr null, ptr @_ZTIN2cv16ParallelLoopBodyE, ptr @_ZN2cv16ParallelLoopBodyD1Ev, ptr @_ZN2cv16ParallelLoopBodyD0Ev, ptr @__cxa_pure_virtual] }, align 8

; Function Attrs: inlinehint mustprogress nounwind uwtable
define linkonce_odr hidden void @_ZN2cv16ParallelLoopBodyC2Ev(ptr noundef nonnull align 8 dereferenceable(8) %0) unnamed_addr #3 comdat align 2 {
  %2 = alloca ptr, align 8
  store ptr %0, ptr %2, align 8, !tbaa !170
  %3 = load ptr, ptr %2, align 8
  store ptr getelementptr inbounds inrange(-16, 24) ({ [5 x ptr] }, ptr @_ZTVN2cv16ParallelLoopBodyE, i32 0, i32 0, i32 2), ptr %3, align 8, !tbaa !8
  ret void
}

; Function Attrs: mustprogress nounwind uwtable
define hidden void @_ZN2cv18DISOpticalFlowImpl21Densification_ParBodyC2ERS0_iiRNS_3MatES4_S4_S4_S4_S4_(ptr noundef nonnull align 8 dereferenceable(80) %0, ptr noundef nonnull align 8 dereferenceable(1560) %1, i32 noundef %2, i32 noundef %3, ptr noundef nonnull align 8 dereferenceable(96) %4, ptr noundef nonnull align 8 dereferenceable(96) %5, ptr noundef nonnull align 8 dereferenceable(96) %6, ptr noundef nonnull align 8 dereferenceable(96) %7, ptr noundef nonnull align 8 dereferenceable(96) %8, ptr noundef nonnull align 8 dereferenceable(96) %9) unnamed_addr #2 align 2 {
  %11 = alloca ptr, align 8
  %12 = alloca ptr, align 8
  %13 = alloca i32, align 4
  %14 = alloca i32, align 4
  %15 = alloca ptr, align 8
  %16 = alloca ptr, align 8
  %17 = alloca ptr, align 8
  %18 = alloca ptr, align 8
  %19 = alloca ptr, align 8
  %20 = alloca ptr, align 8
  store ptr %0, ptr %11, align 8, !tbaa !196
  store ptr %1, ptr %12, align 8, !tbaa !3
  store i32 %2, ptr %13, align 4, !tbaa !60
  store i32 %3, ptr %14, align 4, !tbaa !60
  store ptr %4, ptr %15, align 8, !tbaa !97
  store ptr %5, ptr %16, align 8, !tbaa !97
  store ptr %6, ptr %17, align 8, !tbaa !97
  store ptr %7, ptr %18, align 8, !tbaa !97
  store ptr %8, ptr %19, align 8, !tbaa !97
  store ptr %9, ptr %20, align 8, !tbaa !97
  %21 = load ptr, ptr %11, align 8
  call void @_ZN2cv16ParallelLoopBodyC2Ev(ptr noundef nonnull align 8 dereferenceable(8) %21) #18
  store ptr getelementptr inbounds inrange(-16, 24) ({ [5 x ptr] }, ptr @_ZTVN2cv18DISOpticalFlowImpl21Densification_ParBodyE, i32 0, i32 0, i32 2), ptr %21, align 8, !tbaa !8
  %22 = getelementptr inbounds nuw %"struct.cv::DISOpticalFlowImpl::Densification_ParBody", ptr %21, i32 0, i32 1
  %23 = load ptr, ptr %12, align 8, !tbaa !3
  store ptr %23, ptr %22, align 8, !tbaa !198
  %24 = getelementptr inbounds nuw %"struct.cv::DISOpticalFlowImpl::Densification_ParBody", ptr %21, i32 0, i32 2
  %25 = load i32, ptr %13, align 4, !tbaa !60
  store i32 %25, ptr %24, align 8, !tbaa !200
  %26 = getelementptr inbounds nuw %"struct.cv::DISOpticalFlowImpl::Densification_ParBody", ptr %21, i32 0, i32 4
  %27 = load i32, ptr %14, align 4, !tbaa !60
  store i32 %27, ptr %26, align 8, !tbaa !201
  %28 = getelementptr inbounds nuw %"struct.cv::DISOpticalFlowImpl::Densification_ParBody", ptr %21, i32 0, i32 5
  %29 = load ptr, ptr %15, align 8, !tbaa !97
  store ptr %29, ptr %28, align 8, !tbaa !202
  %30 = getelementptr inbounds nuw %"struct.cv::DISOpticalFlowImpl::Densification_ParBody", ptr %21, i32 0, i32 6
  %31 = load ptr, ptr %16, align 8, !tbaa !97
  store ptr %31, ptr %30, align 8, !tbaa !203
  %32 = getelementptr inbounds nuw %"struct.cv::DISOpticalFlowImpl::Densification_ParBody", ptr %21, i32 0, i32 7
  %33 = load ptr, ptr %17, align 8, !tbaa !97
  store ptr %33, ptr %32, align 8, !tbaa !204
  %34 = getelementptr inbounds nuw %"struct.cv::DISOpticalFlowImpl::Densification_ParBody", ptr %21, i32 0, i32 8
  %35 = load ptr, ptr %18, align 8, !tbaa !97
  store ptr %35, ptr %34, align 8, !tbaa !205
  %36 = getelementptr inbounds nuw %"struct.cv::DISOpticalFlowImpl::Densification_ParBody", ptr %21, i32 0, i32 9
  %37 = load ptr, ptr %19, align 8, !tbaa !97
  store ptr %37, ptr %36, align 8, !tbaa !206
  %38 = getelementptr inbounds nuw %"struct.cv::DISOpticalFlowImpl::Densification_ParBody", ptr %21, i32 0, i32 10
  %39 = load ptr, ptr %20, align 8, !tbaa !97
  store ptr %39, ptr %38, align 8, !tbaa !207
  %40 = getelementptr inbounds nuw %"struct.cv::DISOpticalFlowImpl::Densification_ParBody", ptr %21, i32 0, i32 4
  %41 = load i32, ptr %40, align 8, !tbaa !201
  %42 = sitofp i32 %41 to double
  %43 = getelementptr inbounds nuw %"struct.cv::DISOpticalFlowImpl::Densification_ParBody", ptr %21, i32 0, i32 2
  %44 = load i32, ptr %43, align 8, !tbaa !200
  %45 = sitofp i32 %44 to double
  %46 = fdiv double %42, %45
  %47 = call double @llvm.ceil.f64(double %46)
  %48 = fptosi double %47 to i32
  %49 = getelementptr inbounds nuw %"struct.cv::DISOpticalFlowImpl::Densification_ParBody", ptr %21, i32 0, i32 3
  store i32 %48, ptr %49, align 4, !tbaa !208
  ret void
}