; Function Attrs: mustprogress nofree norecurse nosync nounwind willreturn memory(argmem: write) uwtable
define hidden void @_ZN2cv18DISOpticalFlowImpl21Densification_ParBodyC2ERS0_iiRNS_3MatES4_S4_S4_S4_S4_(ptr noundef nonnull writeonly align 8 captures(none) dereferenceable(80) initializes((0, 28), (32, 80)) %0, ptr noundef nonnull align 8 dereferenceable(1560) %1, i32 noundef %2, i32 noundef %3, ptr noundef nonnull align 8 dereferenceable(96) %4, ptr noundef nonnull align 8 dereferenceable(96) %5, ptr noundef nonnull align 8 dereferenceable(96) %6, ptr noundef nonnull align 8 dereferenceable(96) %7, ptr noundef nonnull align 8 dereferenceable(96) %8, ptr noundef nonnull align 8 dereferenceable(96) %9) unnamed_addr #7 align 2 {
  store ptr getelementptr inbounds nuw inrange(-16, 24) (i8, ptr @_ZTVN2cv18DISOpticalFlowImpl21Densification_ParBodyE, i64 16), ptr %0, align 8, !tbaa !3
  %11 = getelementptr inbounds nuw i8, ptr %0, i64 8
  store ptr %1, ptr %11, align 8, !tbaa !161
  %12 = getelementptr inbounds nuw i8, ptr %0, i64 16
  store i32 %2, ptr %12, align 8, !tbaa !163
  %13 = getelementptr inbounds nuw i8, ptr %0, i64 24
  store i32 %3, ptr %13, align 8, !tbaa !164
  %14 = getelementptr inbounds nuw i8, ptr %0, i64 32
  store ptr %4, ptr %14, align 8, !tbaa !165
  %15 = getelementptr inbounds nuw i8, ptr %0, i64 40
  store ptr %5, ptr %15, align 8, !tbaa !166
  %16 = getelementptr inbounds nuw i8, ptr %0, i64 48
  store ptr %6, ptr %16, align 8, !tbaa !167
  %17 = getelementptr inbounds nuw i8, ptr %0, i64 56
  store ptr %7, ptr %17, align 8, !tbaa !168
  %18 = getelementptr inbounds nuw i8, ptr %0, i64 64
  store ptr %8, ptr %18, align 8, !tbaa !169
  %19 = getelementptr inbounds nuw i8, ptr %0, i64 72
  store ptr %9, ptr %19, align 8, !tbaa !170
  %20 = sitofp i32 %3 to double
  %21 = sitofp i32 %2 to double
  %22 = fdiv double %20, %21
  %23 = tail call double @llvm.ceil.f64(double %22)
  %24 = fptosi double %23 to i32
  %25 = getelementptr inbounds nuw i8, ptr %0, i64 20
  store i32 %24, ptr %25, align 4, !tbaa !171
  ret void
}